target datalayout = "e-m:e-p270:32:32-p271:32:32-p272:64:64-i64:64-i128:128-f80:128-n8:16:32:64-S128"
target triple = "x86_64-pc-linux-gnu"

%struct.AVFilterContext = type { ptr, ptr, ptr, ptr, ptr, i32, ptr, ptr, i32, ptr, ptr, i32, i32, ptr, ptr, ptr, ptr, i32, ptr, i32, i32 }
%struct.SignalstatsContext = type { ptr, i32, i32, i32, i32, i32, i32, i32, i32, i32, ptr, [4 x i8], [3 x i32], i32, ptr, i32, ptr, ptr, ptr, ptr, ptr, ptr }
%struct.ThreadDataHueSatMetrics = type { ptr, ptr, ptr }
%struct.AVChannelLayout = type { i32, i32, %union.anon.1, ptr }
%union.anon.1 = type { i64 }
%struct.AVRational = type { i32, i32 }
%struct.AVFrame = type { [8 x ptr], [8 x i32], ptr, i32, i32, i32, i32, i32, %struct.AVRational, i64, i64, %struct.AVRational, i32, ptr, i32, i32, [8 x ptr], ptr, i32, ptr, i32, i32, i32, i32, i32, i32, i32, i64, ptr, i32, ptr, ptr, i64, i64, i64, i64, ptr, %struct.AVChannelLayout, i64 }

; Function Attrs: nounwind uwtable
define internal i32 @compute_sat_hue_metrics16(ptr noundef %0, ptr noundef %1, i32 noundef %2, i32 noundef %3) #1 {
  %5 = alloca ptr, align 8
  %6 = alloca ptr, align 8
  %7 = alloca i32, align 4
  %8 = alloca i32, align 4
  %9 = alloca i32, align 4
  %10 = alloca i32, align 4
  %11 = alloca ptr, align 8
  %12 = alloca ptr, align 8
  %13 = alloca ptr, align 8
  %14 = alloca ptr, align 8
  %15 = alloca ptr, align 8
  %16 = alloca i32, align 4
  %17 = alloca i32, align 4
  %18 = alloca i32, align 4
  %19 = alloca i32, align 4
  %20 = alloca i32, align 4
  %21 = alloca ptr, align 8
  %22 = alloca ptr, align 8
  %23 = alloca i32, align 4
  %24 = alloca i32, align 4
  %25 = alloca ptr, align 8
  %26 = alloca ptr, align 8
  %27 = alloca i32, align 4
  %28 = alloca i32, align 4
  store ptr %0, ptr %5, align 8, !tbaa !4
  store ptr %1, ptr %6, align 8, !tbaa !93
  store i32 %2, ptr %7, align 4, !tbaa !30
  store i32 %3, ptr %8, align 4, !tbaa !30
  call void @llvm.lifetime.start.p0(i64 4, ptr %9) #11
  call void @llvm.lifetime.start.p0(i64 4, ptr %10) #11
  call void @llvm.lifetime.start.p0(i64 8, ptr %11) #11
  %29 = load ptr, ptr %6, align 8, !tbaa !93
  store ptr %29, ptr %11, align 8, !tbaa !94
  call void @llvm.lifetime.start.p0(i64 8, ptr %12) #11
  %30 = load ptr, ptr %5, align 8, !tbaa !4
  %31 = getelementptr inbounds nuw %struct.AVFilterContext, ptr %30, i32 0, i32 9
  %32 = load ptr, ptr %31, align 8, !tbaa !9
  store ptr %32, ptr %12, align 8, !tbaa !22
  call void @llvm.lifetime.start.p0(i64 8, ptr %13) #11
  %33 = load ptr, ptr %11, align 8, !tbaa !94
  %34 = getelementptr inbounds nuw %struct.ThreadDataHueSatMetrics, ptr %33, i32 0, i32 0
  %35 = load ptr, ptr %34, align 8, !tbaa !55
  store ptr %35, ptr %13, align 8, !tbaa !33
  call void @llvm.lifetime.start.p0(i64 8, ptr %14) #11
  %36 = load ptr, ptr %11, align 8, !tbaa !94
  %37 = getelementptr inbounds nuw %struct.ThreadDataHueSatMetrics, ptr %36, i32 0, i32 1
  %38 = load ptr, ptr %37, align 8, !tbaa !57
  store ptr %38, ptr %14, align 8, !tbaa !33
  call void @llvm.lifetime.start.p0(i64 8, ptr %15) #11
  %39 = load ptr, ptr %11, align 8, !tbaa !94
  %40 = getelementptr inbounds nuw %struct.ThreadDataHueSatMetrics, ptr %39, i32 0, i32 2
  %41 = load ptr, ptr %40, align 8, !tbaa !58
  store ptr %41, ptr %15, align 8, !tbaa !33
  call void @llvm.lifetime.start.p0(i64 4, ptr %16) #11
  %42 = load ptr, ptr %12, align 8, !tbaa !22
  %43 = getelementptr inbounds nuw %struct.SignalstatsContext, ptr %42, i32 0, i32 5
  %44 = load i32, ptr %43, align 8, !tbaa !54
  %45 = sub nsw i32 %44, 1
  %46 = shl i32 1, %45
  store i32 %46, ptr %16, align 4, !tbaa !30
  call void @llvm.lifetime.start.p0(i64 4, ptr %17) #11
  %47 = load ptr, ptr %12, align 8, !tbaa !22
  %48 = getelementptr inbounds nuw %struct.SignalstatsContext, ptr %47, i32 0, i32 1
  %49 = load i32, ptr %48, align 8, !tbaa !60
  %50 = load i32, ptr %7, align 4, !tbaa !30
  %51 = mul nsw i32 %49, %50
  %52 = load i32, ptr %8, align 4, !tbaa !30
  %53 = sdiv i32 %51, %52
  store i32 %53, ptr %17, align 4, !tbaa !30
  call void @llvm.lifetime.start.p0(i64 4, ptr %18) #11
  %54 = load ptr, ptr %12, align 8, !tbaa !22
  %55 = getelementptr inbounds nuw %struct.SignalstatsContext, ptr %54, i32 0, i32 1
  %56 = load i32, ptr %55, align 8, !tbaa !60
  %57 = load i32, ptr %7, align 4, !tbaa !30
  %58 = add nsw i32 %57, 1
  %59 = mul nsw i32 %56, %58
  %60 = load i32, ptr %8, align 4, !tbaa !30
  %61 = sdiv i32 %59, %60
  store i32 %61, ptr %18, align 4, !tbaa !30
  call void @llvm.lifetime.start.p0(i64 4, ptr %19) #11
  %62 = load ptr, ptr %13, align 8, !tbaa !33
  %63 = getelementptr inbounds nuw %struct.AVFrame, ptr %62, i32 0, i32 1
  %64 = getelementptr inbounds [8 x i32], ptr %63, i64 0, i64 1
  %65 = load i32, ptr %64, align 4, !tbaa !30
  %66 = sdiv i32 %65, 2
  store i32 %66, ptr %19, align 4, !tbaa !30
  call void @llvm.lifetime.start.p0(i64 4, ptr %20) #11
  %67 = load ptr, ptr %13, align 8, !tbaa !33
  %68 = getelementptr inbounds nuw %struct.AVFrame, ptr %67, i32 0, i32 1
  %69 = getelementptr inbounds [8 x i32], ptr %68, i64 0, i64 2
  %70 = load i32, ptr %69, align 8, !tbaa !30
  %71 = sdiv i32 %70, 2
  store i32 %71, ptr %20, align 4, !tbaa !30
  call void @llvm.lifetime.start.p0(i64 8, ptr %21) #11
  %72 = load ptr, ptr %13, align 8, !tbaa !33
  %73 = getelementptr inbounds nuw %struct.AVFrame, ptr %72, i32 0, i32 0
  %74 = getelementptr inbounds [8 x ptr], ptr %73, i64 0, i64 1
  %75 = load ptr, ptr %74, align 8, !tbaa !62
  %76 = load i32, ptr %17, align 4, !tbaa !30
  %77 = load i32, ptr %19, align 4, !tbaa !30
  %78 = mul nsw i32 %76, %77
  %79 = sext i32 %78 to i64
  %80 = getelementptr inbounds i16, ptr %75, i64 %79
  store ptr %80, ptr %21, align 8, !tbaa !63
  call void @llvm.lifetime.start.p0(i64 8, ptr %22) #11
  %81 = load ptr, ptr %13, align 8, !tbaa !33
  %82 = getelementptr inbounds nuw %struct.AVFrame, ptr %81, i32 0, i32 0
  %83 = getelementptr inbounds [8 x ptr], ptr %82, i64 0, i64 2
  %84 = load ptr, ptr %83, align 8, !tbaa !62
  %85 = load i32, ptr %17, align 4, !tbaa !30
  %86 = load i32, ptr %20, align 4, !tbaa !30
  %87 = mul nsw i32 %85, %86
  %88 = sext i32 %87 to i64
  %89 = getelementptr inbounds i16, ptr %84, i64 %88
  store ptr %89, ptr %22, align 8, !tbaa !63
  call void @llvm.lifetime.start.p0(i64 4, ptr %23) #11
  %90 = load ptr, ptr %14, align 8, !tbaa !33
  %91 = getelementptr inbounds nuw %struct.AVFrame, ptr %90, i32 0, i32 1
  %92 = getelementptr inbounds [8 x i32], ptr %91, i64 0, i64 0
  %93 = load i32, ptr %92, align 8, !tbaa !30
  %94 = sdiv i32 %93, 2
  store i32 %94, ptr %23, align 4, !tbaa !30
  call void @llvm.lifetime.start.p0(i64 4, ptr %24) #11
  %95 = load ptr, ptr %15, align 8, !tbaa !33
  %96 = getelementptr inbounds nuw %struct.AVFrame, ptr %95, i32 0, i32 1
  %97 = getelementptr inbounds [8 x i32], ptr %96, i64 0, i64 0
  %98 = load i32, ptr %97, align 8, !tbaa !30
  %99 = sdiv i32 %98, 2
  store i32 %99, ptr %24, align 4, !tbaa !30
  call void @llvm.lifetime.start.p0(i64 8, ptr %25) #11
  %100 = load ptr, ptr %14, align 8, !tbaa !33
  %101 = getelementptr inbounds nuw %struct.AVFrame, ptr %100, i32 0, i32 0
  %102 = getelementptr inbounds [8 x ptr], ptr %101, i64 0, i64 0
  %103 = load ptr, ptr %102, align 8, !tbaa !62
  %104 = load i32, ptr %17, align 4, !tbaa !30
  %105 = load i32, ptr %23, align 4, !tbaa !30
  %106 = mul nsw i32 %104, %105
  %107 = sext i32 %106 to i64
  %108 = getelementptr inbounds i16, ptr %103, i64 %107
  store ptr %108, ptr %25, align 8, !tbaa !63
  call void @llvm.lifetime.start.p0(i64 8, ptr %26) #11
  %109 = load ptr, ptr %15, align 8, !tbaa !33
  %110 = getelementptr inbounds nuw %struct.AVFrame, ptr %109, i32 0, i32 0
  %111 = getelementptr inbounds [8 x ptr], ptr %110, i64 0, i64 0
  %112 = load ptr, ptr %111, align 8, !tbaa !62
  %113 = load i32, ptr %17, align 4, !tbaa !30
  %114 = load i32, ptr %24, align 4, !tbaa !30
  %115 = mul nsw i32 %113, %114
  %116 = sext i32 %115 to i64
  %117 = getelementptr inbounds i16, ptr %112, i64 %116
  store ptr %117, ptr %26, align 8, !tbaa !63
  %118 = load i32, ptr %17, align 4, !tbaa !30
  store i32 %118, ptr %10, align 4, !tbaa !30
  br label %119

119:                                              ; preds = %196, %4
  %120 = load i32, ptr %10, align 4, !tbaa !30
  %121 = load i32, ptr %18, align 4, !tbaa !30
  %122 = icmp slt i32 %120, %121
  br i1 %122, label %123, label %199

123:                                              ; preds = %119
  store i32 0, ptr %9, align 4, !tbaa !30
  br label %124

124:                                              ; preds = %176, %123
  %125 = load i32, ptr %9, align 4, !tbaa !30
  %126 = load ptr, ptr %12, align 8, !tbaa !22
  %127 = getelementptr inbounds nuw %struct.SignalstatsContext, ptr %126, i32 0, i32 2
  %128 = load i32, ptr %127, align 4, !tbaa !70
  %129 = icmp slt i32 %125, %128
  br i1 %129, label %130, label %179

130:                                              ; preds = %124
  call void @llvm.lifetime.start.p0(i64 4, ptr %27) #11
  %131 = load ptr, ptr %21, align 8, !tbaa !63
  %132 = load i32, ptr %9, align 4, !tbaa !30
  %133 = sext i32 %132 to i64
  %134 = getelementptr inbounds i16, ptr %131, i64 %133
  %135 = load i16, ptr %134, align 2, !tbaa !50
  %136 = zext i16 %135 to i32
  store i32 %136, ptr %27, align 4, !tbaa !30
  call void @llvm.lifetime.start.p0(i64 4, ptr %28) #11
  %137 = load ptr, ptr %22, align 8, !tbaa !63
  %138 = load i32, ptr %9, align 4, !tbaa !30
  %139 = sext i32 %138 to i64
  %140 = getelementptr inbounds i16, ptr %137, i64 %139
  %141 = load i16, ptr %140, align 2, !tbaa !50
  %142 = zext i16 %141 to i32
  store i32 %142, ptr %28, align 4, !tbaa !30
  %143 = load i32, ptr %27, align 4, !tbaa !30
  %144 = load i32, ptr %16, align 4, !tbaa !30
  %145 = sub nsw i32 %143, %144
  %146 = sitofp i32 %145 to float
  %147 = load i32, ptr %28, align 4, !tbaa !30
  %148 = load i32, ptr %16, align 4, !tbaa !30
  %149 = sub nsw i32 %147, %148
  %150 = sitofp i32 %149 to float
  %151 = call nsz float @hypotf(float noundef %146, float noundef %150) #13
  %152 = fptoui float %151 to i16
  %153 = load ptr, ptr %25, align 8, !tbaa !63
  %154 = load i32, ptr %9, align 4, !tbaa !30
  %155 = sext i32 %154 to i64
  %156 = getelementptr inbounds i16, ptr %153, i64 %155
  store i16 %152, ptr %156, align 2, !tbaa !50
  %157 = load i32, ptr %27, align 4, !tbaa !30
  %158 = load i32, ptr %16, align 4, !tbaa !30
  %159 = sub nsw i32 %157, %158
  %160 = sitofp i32 %159 to float
  %161 = load i32, ptr %28, align 4, !tbaa !30
  %162 = load i32, ptr %16, align 4, !tbaa !30
  %163 = sub nsw i32 %161, %162
  %164 = sitofp i32 %163 to float
  %165 = call nsz float @llvm.atan2.f32(float %160, float %164)
  %166 = fpext nsz float %165 to double
  %167 = call nsz double @llvm.fmuladd.f64(double 0x404CA5DC1A63C1F8, double %166, double 1.800000e+02)
  %168 = fptrunc nsz double %167 to float
  %169 = call nsz float @llvm.floor.f32(float %168)
  %170 = frem nsz float %169, 3.600000e+02
  %171 = fptosi float %170 to i16
  %172 = load ptr, ptr %26, align 8, !tbaa !63
  %173 = load i32, ptr %9, align 4, !tbaa !30
  %174 = sext i32 %173 to i64
  %175 = getelementptr inbounds i16, ptr %172, i64 %174
  store i16 %171, ptr %175, align 2, !tbaa !50
  call void @llvm.lifetime.end.p0(i64 4, ptr %28) #11
  call void @llvm.lifetime.end.p0(i64 4, ptr %27) #11
  br label %176

176:                                              ; preds = %130
  %177 = load i32, ptr %9, align 4, !tbaa !30
  %178 = add nsw i32 %177, 1
  store i32 %178, ptr %9, align 4, !tbaa !30
  br label %124, !llvm.loop !96

179:                                              ; preds = %124
  %180 = load i32, ptr %19, align 4, !tbaa !30
  %181 = load ptr, ptr %21, align 8, !tbaa !63
  %182 = sext i32 %180 to i64
  %183 = getelementptr inbounds i16, ptr %181, i64 %182
  store ptr %183, ptr %21, align 8, !tbaa !63
  %184 = load i32, ptr %20, align 4, !tbaa !30
  %185 = load ptr, ptr %22, align 8, !tbaa !63
  %186 = sext i32 %184 to i64
  %187 = getelementptr inbounds i16, ptr %185, i64 %186
  store ptr %187, ptr %22, align 8, !tbaa !63
  %188 = load i32, ptr %23, align 4, !tbaa !30
  %189 = load ptr, ptr %25, align 8, !tbaa !63
  %190 = sext i32 %188 to i64
  %191 = getelementptr inbounds i16, ptr %189, i64 %190
  store ptr %191, ptr %25, align 8, !tbaa !63
  %192 = load i32, ptr %24, align 4, !tbaa !30
  %193 = load ptr, ptr %26, align 8, !tbaa !63
  %194 = sext i32 %192 to i64
  %195 = getelementptr inbounds i16, ptr %193, i64 %194
  store ptr %195, ptr %26, align 8, !tbaa !63
  br label %196

196:                                              ; preds = %179
  %197 = load i32, ptr %10, align 4, !tbaa !30
  %198 = add nsw i32 %197, 1
  store i32 %198, ptr %10, align 4, !tbaa !30
  br label %119, !llvm.loop !97

199:                                              ; preds = %119
  call void @llvm.lifetime.end.p0(i64 8, ptr %26) #11
  call void @llvm.lifetime.end.p0(i64 8, ptr %25) #11
  call void @llvm.lifetime.end.p0(i64 4, ptr %24) #11
  call void @llvm.lifetime.end.p0(i64 4, ptr %23) #11
  call void @llvm.lifetime.end.p0(i64 8, ptr %22) #11
  call void @llvm.lifetime.end.p0(i64 8, ptr %21) #11
  call void @llvm.lifetime.end.p0(i64 4, ptr %20) #11
  call void @llvm.lifetime.end.p0(i64 4, ptr %19) #11
  call void @llvm.lifetime.end.p0(i64 4, ptr %18) #11
  call void @llvm.lifetime.end.p0(i64 4, ptr %17) #11
  call void @llvm.lifetime.end.p0(i64 4, ptr %16) #11
  call void @llvm.lifetime.end.p0(i64 8, ptr %15) #11
  call void @llvm.lifetime.end.p0(i64 8, ptr %14) #11
  call void @llvm.lifetime.end.p0(i64 8, ptr %13) #11
  call void @llvm.lifetime.end.p0(i64 8, ptr %12) #11
  call void @llvm.lifetime.end.p0(i64 8, ptr %11) #11
  call void @llvm.lifetime.end.p0(i64 4, ptr %10) #11
  call void @llvm.lifetime.end.p0(i64 4, ptr %9) #11
  ret i32 0
}