; Function Attrs: nofree norecurse nosync nounwind memory(readwrite, inaccessiblemem: none) uwtable
define internal noundef i32 @compute_sat_hue_metrics16(ptr noundef readonly captures(none) %0, ptr noundef readonly captures(none) %1, i32 noundef %2, i32 noundef %3) #6 {
  %5 = getelementptr inbounds nuw i8, ptr %0, i64 72
  %6 = load ptr, ptr %5, align 8, !tbaa !4
  %7 = getelementptr inbounds nuw i8, ptr %6, i64 24
  %8 = load i32, ptr %7, align 8, !tbaa !46
  %9 = add nsw i32 %8, -1
  %10 = shl nuw i32 1, %9
  %11 = getelementptr inbounds nuw i8, ptr %6, i64 8
  %12 = load i32, ptr %11, align 8, !tbaa !52
  %13 = mul nsw i32 %12, %2
  %14 = sdiv i32 %13, %3
  %15 = add nsw i32 %2, 1
  %16 = mul nsw i32 %12, %15
  %17 = sdiv i32 %16, %3
  %18 = icmp slt i32 %14, %17
  br i1 %18, label %.preheader.lr.ph, label %._crit_edge69

.preheader.lr.ph:                                 ; preds = %4
  %19 = getelementptr inbounds nuw i8, ptr %1, i64 16
  %20 = load ptr, ptr %19, align 8, !tbaa !50
  %21 = getelementptr inbounds nuw i8, ptr %20, i64 64
  %22 = load i32, ptr %21, align 8, !tbaa !26
  %23 = sdiv i32 %22, 2
  %24 = getelementptr inbounds nuw i8, ptr %1, i64 8
  %25 = load ptr, ptr %24, align 8, !tbaa !49
  %26 = getelementptr inbounds nuw i8, ptr %25, i64 64
  %27 = load i32, ptr %26, align 8, !tbaa !26
  %28 = sdiv i32 %27, 2
  %29 = load ptr, ptr %1, align 8, !tbaa !47
  %30 = getelementptr inbounds nuw i8, ptr %29, i64 72
  %31 = load i32, ptr %30, align 8, !tbaa !26
  %32 = sdiv i32 %31, 2
  %33 = getelementptr inbounds nuw i8, ptr %29, i64 68
  %34 = load i32, ptr %33, align 4, !tbaa !26
  %35 = sdiv i32 %34, 2
  %36 = getelementptr inbounds nuw i8, ptr %6, i64 12
  %37 = load i32, ptr %36, align 4, !tbaa !57
  %38 = icmp sgt i32 %37, 0
  %39 = sext i32 %35 to i64
  %40 = sext i32 %32 to i64
  %41 = sext i32 %28 to i64
  %42 = sext i32 %23 to i64
  br i1 %38, label %.preheader.us.preheader, label %._crit_edge69

.preheader.us.preheader:                          ; preds = %.preheader.lr.ph
  %43 = getelementptr inbounds nuw i8, ptr %29, i64 8
  %44 = load ptr, ptr %43, align 8, !tbaa !54
  %45 = mul nsw i32 %35, %14
  %46 = sext i32 %45 to i64
  %47 = getelementptr inbounds i16, ptr %44, i64 %46
  %48 = getelementptr inbounds nuw i8, ptr %29, i64 16
  %49 = load ptr, ptr %48, align 8, !tbaa !54
  %50 = mul nsw i32 %32, %14
  %51 = sext i32 %50 to i64
  %52 = getelementptr inbounds i16, ptr %49, i64 %51
  %53 = load ptr, ptr %25, align 8, !tbaa !54
  %54 = mul nsw i32 %28, %14
  %55 = sext i32 %54 to i64
  %56 = getelementptr inbounds i16, ptr %53, i64 %55
  %57 = load ptr, ptr %20, align 8, !tbaa !54
  %58 = mul nsw i32 %23, %14
  %59 = sext i32 %58 to i64
  %60 = getelementptr inbounds i16, ptr %57, i64 %59
  %wide.trip.count = zext nneg i32 %37 to i64
  br label %.preheader.us

.preheader.us:                                    ; preds = %.preheader.us.preheader, %._crit_edge.us
  %.05868.us = phi i32 [ %87, %._crit_edge.us ], [ %14, %.preheader.us.preheader ]
  %.05967.us = phi ptr [ %86, %._crit_edge.us ], [ %60, %.preheader.us.preheader ]
  %.06066.us = phi ptr [ %85, %._crit_edge.us ], [ %56, %.preheader.us.preheader ]
  %.06165.us = phi ptr [ %83, %._crit_edge.us ], [ %47, %.preheader.us.preheader ]
  %.06264.us = phi ptr [ %84, %._crit_edge.us ], [ %52, %.preheader.us.preheader ]
  br label %61

61:                                               ; preds = %.preheader.us, %61
  %indvars.iv = phi i64 [ 0, %.preheader.us ], [ %indvars.iv.next, %61 ]
  %62 = getelementptr inbounds nuw i16, ptr %.06165.us, i64 %indvars.iv
  %63 = load i16, ptr %62, align 2, !tbaa !62
  %64 = zext i16 %63 to i32
  %65 = getelementptr inbounds nuw i16, ptr %.06264.us, i64 %indvars.iv
  %66 = load i16, ptr %65, align 2, !tbaa !62
  %67 = zext i16 %66 to i32
  %68 = sub nsw i32 %64, %10
  %69 = sitofp i32 %68 to float
  %70 = sub nsw i32 %67, %10
  %71 = sitofp i32 %70 to float
  %72 = tail call nsz float @hypotf(float noundef %69, float noundef %71) #14
  %73 = fptoui float %72 to i16
  %74 = getelementptr inbounds nuw i16, ptr %.06066.us, i64 %indvars.iv
  store i16 %73, ptr %74, align 2, !tbaa !62
  %75 = tail call nsz float @llvm.atan2.f32(float %69, float %71)
  %76 = fpext nsz float %75 to double
  %77 = tail call nsz double @llvm.fmuladd.f64(double %76, double 0x404CA5DC1A63C1F8, double 1.800000e+02)
  %78 = fptrunc nsz double %77 to float
  %79 = tail call nsz float @llvm.floor.f32(float %78)
  %80 = frem nsz float %79, 3.600000e+02
  %81 = fptosi float %80 to i16
  %82 = getelementptr inbounds nuw i16, ptr %.05967.us, i64 %indvars.iv
  store i16 %81, ptr %82, align 2, !tbaa !62
  %indvars.iv.next = add nuw nsw i64 %indvars.iv, 1
  %exitcond.not = icmp eq i64 %indvars.iv.next, %wide.trip.count
  br i1 %exitcond.not, label %._crit_edge.us, label %61, !llvm.loop !85

._crit_edge.us:                                   ; preds = %61
  %83 = getelementptr inbounds i16, ptr %.06165.us, i64 %39
  %84 = getelementptr inbounds i16, ptr %.06264.us, i64 %40
  %85 = getelementptr inbounds i16, ptr %.06066.us, i64 %41
  %86 = getelementptr inbounds i16, ptr %.05967.us, i64 %42
  %87 = add nsw i32 %.05868.us, 1
  %exitcond72.not = icmp eq i32 %87, %17
  br i1 %exitcond72.not, label %._crit_edge69, label %.preheader.us, !llvm.loop !86

._crit_edge69:                                    ; preds = %._crit_edge.us, %.preheader.lr.ph, %4
  ret i32 0
}